target datalayout = "e-m:e-p270:32:32-p271:32:32-p272:64:64-i64:64-i128:128-f80:128-n8:16:32:64-S128"
target triple = "x86_64-pc-linux-gnu"

%struct.mspack_system = type { ptr, ptr, ptr, ptr, ptr, ptr, ptr, ptr, ptr, ptr, ptr }
%struct.mscab_decompressor_p = type { %struct.mscab_decompressor, ptr, ptr, i32, i32, i32, i32, i32, i32 }
%struct.mscab_decompressor = type { ptr, ptr, ptr, ptr, ptr, ptr, ptr, ptr }
%struct.mscabd_decompress_state = type { ptr, ptr, i32, i32, i64, %struct.mspack_system, i32, ptr, ptr, ptr, ptr, ptr, ptr, ptr, [65536 x i8] }
%struct.noned_state = type { ptr, ptr, ptr, ptr, i32 }

; Function Attrs: nounwind uwtable
define internal void @noned_free(ptr noundef %0) #0 {
  %2 = alloca ptr, align 8
  %3 = alloca ptr, align 8
  store ptr %0, ptr %2, align 8, !tbaa !148
  call void @llvm.lifetime.start.p0(i64 8, ptr %3) #4
  %4 = load ptr, ptr %2, align 8, !tbaa !148
  %5 = icmp ne ptr %4, null
  br i1 %5, label %6, label %20

6:                                                ; preds = %1
  %7 = load ptr, ptr %2, align 8, !tbaa !148
  %8 = getelementptr inbounds nuw %struct.noned_state, ptr %7, i32 0, i32 0
  %9 = load ptr, ptr %8, align 8, !tbaa !152
  store ptr %9, ptr %3, align 8, !tbaa !3
  %10 = load ptr, ptr %3, align 8, !tbaa !3
  %11 = getelementptr inbounds nuw %struct.mspack_system, ptr %10, i32 0, i32 8
  %12 = load ptr, ptr %11, align 8, !tbaa !55
  %13 = load ptr, ptr %2, align 8, !tbaa !148
  %14 = getelementptr inbounds nuw %struct.noned_state, ptr %13, i32 0, i32 3
  %15 = load ptr, ptr %14, align 8, !tbaa !154
  call void %12(ptr noundef %15)
  %16 = load ptr, ptr %3, align 8, !tbaa !3
  %17 = getelementptr inbounds nuw %struct.mspack_system, ptr %16, i32 0, i32 8
  %18 = load ptr, ptr %17, align 8, !tbaa !55
  %19 = load ptr, ptr %2, align 8, !tbaa !148
  call void %18(ptr noundef %19)
  br label %20

20:                                               ; preds = %6, %1
  call void @llvm.lifetime.end.p0(i64 8, ptr %3) #4
  ret void
}

; Function Attrs: nounwind uwtable
define internal void @cabd_free_decomp(ptr noundef %0) #0 {
  %2 = alloca ptr, align 8
  store ptr %0, ptr %2, align 8, !tbaa !8
  %3 = load ptr, ptr %2, align 8, !tbaa !8
  %4 = icmp ne ptr %3, null
  br i1 %4, label %5, label %17

5:                                                ; preds = %1
  %6 = load ptr, ptr %2, align 8, !tbaa !8
  %7 = getelementptr inbounds nuw %struct.mscab_decompressor_p, ptr %6, i32 0, i32 1
  %8 = load ptr, ptr %7, align 8, !tbaa !25
  %9 = icmp ne ptr %8, null
  br i1 %9, label %10, label %17

10:                                               ; preds = %5
  %11 = load ptr, ptr %2, align 8, !tbaa !8
  %12 = getelementptr inbounds nuw %struct.mscab_decompressor_p, ptr %11, i32 0, i32 1
  %13 = load ptr, ptr %12, align 8, !tbaa !25
  %14 = getelementptr inbounds nuw %struct.mscabd_decompress_state, ptr %13, i32 0, i32 8
  %15 = load ptr, ptr %14, align 8, !tbaa !92
  %16 = icmp ne ptr %15, null
  br i1 %16, label %18, label %17

17:                                               ; preds = %10, %5, %1
  br label %58

18:                                               ; preds = %10
  %19 = load ptr, ptr %2, align 8, !tbaa !8
  %20 = getelementptr inbounds nuw %struct.mscab_decompressor_p, ptr %19, i32 0, i32 1
  %21 = load ptr, ptr %20, align 8, !tbaa !25
  %22 = getelementptr inbounds nuw %struct.mscabd_decompress_state, ptr %21, i32 0, i32 6
  %23 = load i32, ptr %22, align 8, !tbaa !106
  %24 = and i32 %23, 15
  switch i32 %24, label %49 [
    i32 0, label %25
    i32 1, label %31
    i32 2, label %37
    i32 3, label %43
  ]

25:                                               ; preds = %18
  %26 = load ptr, ptr %2, align 8, !tbaa !8
  %27 = getelementptr inbounds nuw %struct.mscab_decompressor_p, ptr %26, i32 0, i32 1
  %28 = load ptr, ptr %27, align 8, !tbaa !25
  %29 = getelementptr inbounds nuw %struct.mscabd_decompress_state, ptr %28, i32 0, i32 8
  %30 = load ptr, ptr %29, align 8, !tbaa !92
  call void @noned_free(ptr noundef %30)
  br label %49

31:                                               ; preds = %18
  %32 = load ptr, ptr %2, align 8, !tbaa !8
  %33 = getelementptr inbounds nuw %struct.mscab_decompressor_p, ptr %32, i32 0, i32 1
  %34 = load ptr, ptr %33, align 8, !tbaa !25
  %35 = getelementptr inbounds nuw %struct.mscabd_decompress_state, ptr %34, i32 0, i32 8
  %36 = load ptr, ptr %35, align 8, !tbaa !92
  call void @mszipd_free(ptr noundef %36)
  br label %49

37:                                               ; preds = %18
  %38 = load ptr, ptr %2, align 8, !tbaa !8
  %39 = getelementptr inbounds nuw %struct.mscab_decompressor_p, ptr %38, i32 0, i32 1
  %40 = load ptr, ptr %39, align 8, !tbaa !25
  %41 = getelementptr inbounds nuw %struct.mscabd_decompress_state, ptr %40, i32 0, i32 8
  %42 = load ptr, ptr %41, align 8, !tbaa !92
  call void @qtmd_free(ptr noundef %42)
  br label %49

43:                                               ; preds = %18
  %44 = load ptr, ptr %2, align 8, !tbaa !8
  %45 = getelementptr inbounds nuw %struct.mscab_decompressor_p, ptr %44, i32 0, i32 1
  %46 = load ptr, ptr %45, align 8, !tbaa !25
  %47 = getelementptr inbounds nuw %struct.mscabd_decompress_state, ptr %46, i32 0, i32 8
  %48 = load ptr, ptr %47, align 8, !tbaa !92
  call void @lzxd_free(ptr noundef %48)
  br label %49

49:                                               ; preds = %18, %43, %37, %31, %25
  %50 = load ptr, ptr %2, align 8, !tbaa !8
  %51 = getelementptr inbounds nuw %struct.mscab_decompressor_p, ptr %50, i32 0, i32 1
  %52 = load ptr, ptr %51, align 8, !tbaa !25
  %53 = getelementptr inbounds nuw %struct.mscabd_decompress_state, ptr %52, i32 0, i32 7
  store ptr null, ptr %53, align 8, !tbaa !105
  %54 = load ptr, ptr %2, align 8, !tbaa !8
  %55 = getelementptr inbounds nuw %struct.mscab_decompressor_p, ptr %54, i32 0, i32 1
  %56 = load ptr, ptr %55, align 8, !tbaa !25
  %57 = getelementptr inbounds nuw %struct.mscabd_decompress_state, ptr %56, i32 0, i32 8
  store ptr null, ptr %57, align 8, !tbaa !92
  br label %58

58:                                               ; preds = %49, %17
  ret void
}

; Function Attrs: nounwind uwtable
define void @mspack_destroy_cab_decompressor(ptr noundef %0) #0 {
  %2 = alloca ptr, align 8
  %3 = alloca ptr, align 8
  %4 = alloca ptr, align 8
  store ptr %0, ptr %2, align 8, !tbaa !31
  call void @llvm.lifetime.start.p0(i64 8, ptr %3) #4
  %5 = load ptr, ptr %2, align 8, !tbaa !31
  store ptr %5, ptr %3, align 8, !tbaa !8
  %6 = load ptr, ptr %3, align 8, !tbaa !8
  %7 = icmp ne ptr %6, null
  br i1 %7, label %8, label %45

8:                                                ; preds = %1
  call void @llvm.lifetime.start.p0(i64 8, ptr %4) #4
  %9 = load ptr, ptr %3, align 8, !tbaa !8
  %10 = getelementptr inbounds nuw %struct.mscab_decompressor_p, ptr %9, i32 0, i32 2
  %11 = load ptr, ptr %10, align 8, !tbaa !24
  store ptr %11, ptr %4, align 8, !tbaa !3
  %12 = load ptr, ptr %3, align 8, !tbaa !8
  %13 = getelementptr inbounds nuw %struct.mscab_decompressor_p, ptr %12, i32 0, i32 1
  %14 = load ptr, ptr %13, align 8, !tbaa !25
  %15 = icmp ne ptr %14, null
  br i1 %15, label %16, label %40

16:                                               ; preds = %8
  %17 = load ptr, ptr %3, align 8, !tbaa !8
  %18 = getelementptr inbounds nuw %struct.mscab_decompressor_p, ptr %17, i32 0, i32 1
  %19 = load ptr, ptr %18, align 8, !tbaa !25
  %20 = getelementptr inbounds nuw %struct.mscabd_decompress_state, ptr %19, i32 0, i32 10
  %21 = load ptr, ptr %20, align 8, !tbaa !65
  %22 = icmp ne ptr %21, null
  br i1 %22, label %23, label %32

23:                                               ; preds = %16
  %24 = load ptr, ptr %4, align 8, !tbaa !3
  %25 = getelementptr inbounds nuw %struct.mspack_system, ptr %24, i32 0, i32 1
  %26 = load ptr, ptr %25, align 8, !tbaa !49
  %27 = load ptr, ptr %3, align 8, !tbaa !8
  %28 = getelementptr inbounds nuw %struct.mscab_decompressor_p, ptr %27, i32 0, i32 1
  %29 = load ptr, ptr %28, align 8, !tbaa !25
  %30 = getelementptr inbounds nuw %struct.mscabd_decompress_state, ptr %29, i32 0, i32 10
  %31 = load ptr, ptr %30, align 8, !tbaa !65
  call void %26(ptr noundef %31)
  br label %32

32:                                               ; preds = %23, %16
  %33 = load ptr, ptr %3, align 8, !tbaa !8
  call void @cabd_free_decomp(ptr noundef %33)
  %34 = load ptr, ptr %4, align 8, !tbaa !3
  %35 = getelementptr inbounds nuw %struct.mspack_system, ptr %34, i32 0, i32 8
  %36 = load ptr, ptr %35, align 8, !tbaa !55
  %37 = load ptr, ptr %3, align 8, !tbaa !8
  %38 = getelementptr inbounds nuw %struct.mscab_decompressor_p, ptr %37, i32 0, i32 1
  %39 = load ptr, ptr %38, align 8, !tbaa !25
  call void %36(ptr noundef %39)
  br label %40

40:                                               ; preds = %32, %8
  %41 = load ptr, ptr %4, align 8, !tbaa !3
  %42 = getelementptr inbounds nuw %struct.mspack_system, ptr %41, i32 0, i32 8
  %43 = load ptr, ptr %42, align 8, !tbaa !55
  %44 = load ptr, ptr %3, align 8, !tbaa !8
  call void %43(ptr noundef %44)
  call void @llvm.lifetime.end.p0(i64 8, ptr %4) #4
  br label %45

45:                                               ; preds = %40, %1
  call void @llvm.lifetime.end.p0(i64 8, ptr %3) #4
  ret void
}