; Function Attrs: nounwind uwtable
define void @mspack_destroy_cab_decompressor(ptr noundef %0) local_unnamed_addr #0 {
  %.not = icmp eq ptr %0, null
  br i1 %.not, label %39, label %2

2:                                                ; preds = %1
  %3 = getelementptr inbounds nuw i8, ptr %0, i64 72
  %4 = load ptr, ptr %3, align 8, !tbaa !21
  %5 = getelementptr inbounds nuw i8, ptr %0, i64 64
  %6 = load ptr, ptr %5, align 8, !tbaa !22
  %.not14 = icmp eq ptr %6, null
  br i1 %.not14, label %36, label %7

7:                                                ; preds = %2
  %8 = getelementptr inbounds nuw i8, ptr %6, i64 152
  %9 = load ptr, ptr %8, align 8, !tbaa !53
  %.not15 = icmp eq ptr %9, null
  br i1 %.not15, label %.thread, label %10

10:                                               ; preds = %7
  %11 = getelementptr inbounds nuw i8, ptr %4, i64 8
  %12 = load ptr, ptr %11, align 8, !tbaa !38
  tail call void %12(ptr noundef nonnull %9) #8
  %.pre = load ptr, ptr %5, align 8, !tbaa !22
  %.not.i = icmp eq ptr %.pre, null
  br i1 %.not.i, label %cabd_free_decomp.exit, label %.thread

.thread:                                          ; preds = %7, %10
  %13 = phi ptr [ %.pre, %10 ], [ %6, %7 ]
  %14 = getelementptr inbounds nuw i8, ptr %13, i64 136
  %15 = load ptr, ptr %14, align 8, !tbaa !54
  %.not12.i = icmp eq ptr %15, null
  br i1 %.not12.i, label %cabd_free_decomp.exit, label %16

16:                                               ; preds = %.thread
  %17 = getelementptr inbounds nuw i8, ptr %13, i64 120
  %18 = load i32, ptr %17, align 8, !tbaa !55
  %19 = and i32 %18, 15
  switch i32 %19, label %30 [
    i32 0, label %20
    i32 1, label %27
    i32 2, label %28
    i32 3, label %29
  ]

20:                                               ; preds = %16
  %21 = load ptr, ptr %15, align 8, !tbaa !56
  %22 = getelementptr inbounds nuw i8, ptr %21, i64 64
  %23 = load ptr, ptr %22, align 8, !tbaa !42
  %24 = getelementptr inbounds nuw i8, ptr %15, i64 24
  %25 = load ptr, ptr %24, align 8, !tbaa !58
  tail call void %23(ptr noundef %25) #8
  %26 = load ptr, ptr %22, align 8, !tbaa !42
  tail call void %26(ptr noundef nonnull %15) #8
  br label %30

27:                                               ; preds = %16
  tail call void @mszipd_free(ptr noundef nonnull %15) #8
  br label %30

28:                                               ; preds = %16
  tail call void @qtmd_free(ptr noundef nonnull %15) #8
  br label %30

29:                                               ; preds = %16
  tail call void @lzxd_free(ptr noundef nonnull %15) #8
  br label %30

30:                                               ; preds = %29, %28, %27, %20, %16
  %31 = load ptr, ptr %5, align 8, !tbaa !22
  %32 = getelementptr inbounds nuw i8, ptr %31, i64 128
  tail call void @llvm.memset.p0.i64(ptr noundef nonnull align 8 dereferenceable(16) %32, i8 0, i64 16, i1 false)
  %.pre16 = load ptr, ptr %5, align 8, !tbaa !22
  br label %cabd_free_decomp.exit

cabd_free_decomp.exit:                            ; preds = %10, %.thread, %30
  %33 = phi ptr [ null, %10 ], [ %13, %.thread ], [ %.pre16, %30 ]
  %34 = getelementptr inbounds nuw i8, ptr %4, i64 64
  %35 = load ptr, ptr %34, align 8, !tbaa !42
  tail call void %35(ptr noundef %33) #8
  br label %36

36:                                               ; preds = %cabd_free_decomp.exit, %2
  %37 = getelementptr inbounds nuw i8, ptr %4, i64 64
  %38 = load ptr, ptr %37, align 8, !tbaa !42
  tail call void %38(ptr noundef nonnull %0) #8
  br label %39

39:                                               ; preds = %36, %1
  ret void
}